; Function Attrs: nounwind uwtable
define range(i32 -1, 1) i32 @H5HF__hdr_adjust_heap(ptr noundef %0, i64 noundef %1, i64 noundef %2) local_unnamed_addr #0 {
  %4 = load i8, ptr @H5HF_init_g, align 1, !tbaa !3, !range !7, !noundef !8
  %5 = trunc nuw i8 %4 to i1
  %6 = load i8, ptr @H5_libterm_g, align 1, !range !7
  %7 = trunc nuw i8 %6 to i1
  %8 = xor i1 %7, true
  %9 = select i1 %5, i1 true, i1 %8
  br i1 %9, label %10, label %H5HF__hdr_dirty.exit, !prof !9

10:                                               ; preds = %3
  %11 = getelementptr inbounds nuw i8, ptr %0, i64 504
  store i64 %1, ptr %11, align 8, !tbaa !73
  %12 = getelementptr inbounds nuw i8, ptr %0, i64 376
  %13 = load i64, ptr %12, align 8, !tbaa !72
  %14 = add nsw i64 %13, %2
  store i64 %14, ptr %12, align 8, !tbaa !72
  %15 = getelementptr inbounds nuw i8, ptr %0, i64 252
  %16 = load i32, ptr %15, align 4, !tbaa !61
  %.not.i = icmp eq i32 %16, 0
  br i1 %.not.i, label %26, label %17

17:                                               ; preds = %10
  %18 = getelementptr inbounds nuw i8, ptr %0, i64 584
  %19 = load i64, ptr %18, align 8, !tbaa !62
  %20 = tail call i32 @H5AC_resize_entry(ptr noundef nonnull %0, i64 noundef %19) #7
  %21 = icmp slt i32 %20, 0
  br i1 %21, label %22, label %26

22:                                               ; preds = %17
  %23 = load i64, ptr @H5E_HEAP_g, align 8, !tbaa !10
  %24 = load i64, ptr @H5E_CANTRESIZE_g, align 8, !tbaa !10
  %25 = tail call i32 (ptr, ptr, i32, i64, i64, ptr, ...) @H5E_printf_stack(ptr noundef nonnull @.str, ptr noundef nonnull @__func__.H5HF__hdr_dirty, i32 noundef 661, i64 noundef %23, i64 noundef %24, ptr noundef nonnull @.str.24) #7
  br label %33

26:                                               ; preds = %17, %10
  %27 = tail call i32 @H5AC_mark_entry_dirty(ptr noundef nonnull %0) #7
  %28 = icmp slt i32 %27, 0
  br i1 %28, label %29, label %H5HF__hdr_dirty.exit

29:                                               ; preds = %26
  %30 = load i64, ptr @H5E_HEAP_g, align 8, !tbaa !10
  %31 = load i64, ptr @H5E_CANTMARKDIRTY_g, align 8, !tbaa !10
  %32 = tail call i32 (ptr, ptr, i32, i64, i64, ptr, ...) @H5E_printf_stack(ptr noundef nonnull @.str, ptr noundef nonnull @__func__.H5HF__hdr_dirty, i32 noundef 665, i64 noundef %30, i64 noundef %31, ptr noundef nonnull @.str.25) #7
  br label %33

33:                                               ; preds = %22, %29
  %34 = load i64, ptr @H5E_HEAP_g, align 8, !tbaa !10
  %35 = load i64, ptr @H5E_CANTDIRTY_g, align 8, !tbaa !10
  %36 = tail call i32 (ptr, ptr, i32, i64, i64, ptr, ...) @H5E_printf_stack(ptr noundef nonnull @.str, ptr noundef nonnull @__func__.H5HF__hdr_adjust_heap, i32 noundef 734, i64 noundef %34, i64 noundef %35, ptr noundef nonnull @.str.27) #7
  br label %H5HF__hdr_dirty.exit

H5HF__hdr_dirty.exit:                             ; preds = %26, %33, %3
  %.0 = phi i32 [ -1, %33 ], [ 0, %3 ], [ 0, %26 ]
  ret i32 %.0
}